target datalayout = "e-m:e-p270:32:32-p271:32:32-p272:64:64-i64:64-i128:128-f80:128-n8:16:32:64-S128"
target triple = "x86_64-pc-linux-gnu"

%struct.List = type { i32, i32, i32, ptr, [0 x %union.ListCell] }
%union.ListCell = type { ptr }

; Function Attrs: inlinehint nounwind uwtable
define internal ptr @list_nth_cell(ptr noundef %0, i32 noundef %1) #2 {
  %3 = alloca ptr, align 8
  %4 = alloca i32, align 4
  store ptr %0, ptr %3, align 8
  store i32 %1, ptr %4, align 4
  %5 = load ptr, ptr %3, align 8
  %6 = getelementptr inbounds nuw %struct.List, ptr %5, i32 0, i32 3
  %7 = load ptr, ptr %6, align 8
  %8 = load i32, ptr %4, align 4
  %9 = sext i32 %8 to i64
  %10 = getelementptr inbounds %union.ListCell, ptr %7, i64 %9
  ret ptr %10
}

; Function Attrs: inlinehint nounwind uwtable
define internal i32 @list_length(ptr noundef %0) #2 {
  %2 = alloca ptr, align 8
  store ptr %0, ptr %2, align 8
  %3 = load ptr, ptr %2, align 8
  %4 = icmp ne ptr %3, null
  br i1 %4, label %5, label %9

5:                                                ; preds = %1
  %6 = load ptr, ptr %2, align 8
  %7 = getelementptr inbounds nuw %struct.List, ptr %6, i32 0, i32 1
  %8 = load i32, ptr %7, align 4
  br label %10

9:                                                ; preds = %1
  br label %10

10:                                               ; preds = %9, %5
  %11 = phi i32 [ %8, %5 ], [ 0, %9 ]
  ret i32 %11
}

; Function Attrs: nounwind uwtable
define dso_local zeroext i1 @predicate_refuted_by(ptr noundef %0, ptr noundef %1, i1 noundef zeroext %2) #0 {
  %4 = alloca i1, align 1
  %5 = alloca ptr, align 8
  %6 = alloca ptr, align 8
  %7 = alloca i8, align 1
  %8 = alloca ptr, align 8
  %9 = alloca ptr, align 8
  %10 = alloca i32, align 4
  store ptr %0, ptr %5, align 8
  store ptr %1, ptr %6, align 8
  %11 = zext i1 %2 to i8
  store i8 %11, ptr %7, align 1
  call void @llvm.lifetime.start.p0(i64 8, ptr %8) #7
  call void @llvm.lifetime.start.p0(i64 8, ptr %9) #7
  %12 = load ptr, ptr %5, align 8
  %13 = icmp eq ptr %12, null
  br i1 %13, label %14, label %15

14:                                               ; preds = %3
  store i1 false, ptr %4, align 1
  store i32 1, ptr %10, align 4
  br label %45

15:                                               ; preds = %3
  %16 = load ptr, ptr %6, align 8
  %17 = icmp eq ptr %16, null
  br i1 %17, label %18, label %19

18:                                               ; preds = %15
  store i1 false, ptr %4, align 1
  store i32 1, ptr %10, align 4
  br label %45

19:                                               ; preds = %15
  %20 = load ptr, ptr %5, align 8
  %21 = call i32 @list_length(ptr noundef %20)
  %22 = icmp eq i32 %21, 1
  br i1 %22, label %23, label %27

23:                                               ; preds = %19
  %24 = load ptr, ptr %5, align 8
  %25 = call ptr @list_nth_cell(ptr noundef %24, i32 noundef 0)
  %26 = load ptr, ptr %25, align 8
  store ptr %26, ptr %8, align 8
  br label %29

27:                                               ; preds = %19
  %28 = load ptr, ptr %5, align 8
  store ptr %28, ptr %8, align 8
  br label %29

29:                                               ; preds = %27, %23
  %30 = load ptr, ptr %6, align 8
  %31 = call i32 @list_length(ptr noundef %30)
  %32 = icmp eq i32 %31, 1
  br i1 %32, label %33, label %37

33:                                               ; preds = %29
  %34 = load ptr, ptr %6, align 8
  %35 = call ptr @list_nth_cell(ptr noundef %34, i32 noundef 0)
  %36 = load ptr, ptr %35, align 8
  store ptr %36, ptr %9, align 8
  br label %39

37:                                               ; preds = %29
  %38 = load ptr, ptr %6, align 8
  store ptr %38, ptr %9, align 8
  br label %39

39:                                               ; preds = %37, %33
  %40 = load ptr, ptr %9, align 8
  %41 = load ptr, ptr %8, align 8
  %42 = load i8, ptr %7, align 1, !range !4, !noundef !5
  %43 = trunc i8 %42 to i1
  %44 = call zeroext i1 @predicate_refuted_by_recurse(ptr noundef %40, ptr noundef %41, i1 noundef zeroext %43)
  store i1 %44, ptr %4, align 1
  store i32 1, ptr %10, align 4
  br label %45

45:                                               ; preds = %39, %18, %14
  call void @llvm.lifetime.end.p0(i64 8, ptr %9) #7
  call void @llvm.lifetime.end.p0(i64 8, ptr %8) #7
  %46 = load i1, ptr %4, align 1
  ret i1 %46
}