; Function Attrs: nounwind uwtable
define dso_local zeroext i1 @predicate_refuted_by(ptr noundef %0, ptr noundef %1, i1 noundef zeroext %2) local_unnamed_addr #0 {
  %4 = icmp eq ptr %0, null
  %5 = icmp eq ptr %1, null
  %or.cond = or i1 %4, %5
  br i1 %or.cond, label %20, label %list_length.exit

list_length.exit:                                 ; preds = %3
  %6 = getelementptr inbounds nuw i8, ptr %0, i64 4
  %7 = load i32, ptr %6, align 4
  %8 = icmp eq i32 %7, 1
  br i1 %8, label %9, label %list_length.exit17

9:                                                ; preds = %list_length.exit
  %10 = getelementptr i8, ptr %0, i64 16
  %.val15 = load ptr, ptr %10, align 8
  %11 = load ptr, ptr %.val15, align 8
  br label %list_length.exit17

list_length.exit17:                               ; preds = %list_length.exit, %9
  %.011 = phi ptr [ %11, %9 ], [ %0, %list_length.exit ]
  %12 = getelementptr inbounds nuw i8, ptr %1, i64 4
  %13 = load i32, ptr %12, align 4
  %14 = icmp eq i32 %13, 1
  br i1 %14, label %15, label %18

15:                                               ; preds = %list_length.exit17
  %16 = getelementptr i8, ptr %1, i64 16
  %.val = load ptr, ptr %16, align 8
  %17 = load ptr, ptr %.val, align 8
  br label %18

18:                                               ; preds = %list_length.exit17, %15
  %.0 = phi ptr [ %17, %15 ], [ %1, %list_length.exit17 ]
  %19 = tail call fastcc zeroext i1 @predicate_refuted_by_recurse(ptr noundef %.0, ptr noundef %.011, i1 noundef zeroext %2)
  br label %20

20:                                               ; preds = %3, %18
  %.012 = phi i1 [ %19, %18 ], [ false, %3 ]
  ret i1 %.012
}